target datalayout = "e-m:e-p270:32:32-p271:32:32-p272:64:64-i64:64-i128:128-f80:128-n8:16:32:64-S128"
target triple = "x86_64-pc-linux-gnu"

%"class.smt::arith_eq_adapter" = type { %"struct.smt::arith_eq_adapter_stats", ptr, ptr, %class.obj_pair_map, %class.svector, %class.svector.0 }
%"struct.smt::arith_eq_adapter_stats" = type { i32 }
%class.obj_pair_map = type { %class.core_hashtable }
%class.core_hashtable = type <{ ptr, i32, i32, i32, [4 x i8] }>
%class.svector = type { %class.vector }
%class.vector = type { ptr }
%class.svector.0 = type { %class.vector.1 }
%class.vector.1 = type { ptr }
%class.ptr_vector.171 = type { %class.vector.172 }
%class.vector.172 = type { ptr }
%class.svector.12 = type { %class.vector.13 }
%class.vector.13 = type { ptr }
%"class.smt::theory" = type <{ ptr, i32, [4 x i8], ptr, ptr, %class.ptr_vector.171, %class.svector.12, i32, i8, [3 x i8] }>

; Function Attrs: mustprogress nounwind uwtable
define linkonce_odr hidden noundef nonnull align 8 dereferenceable(8) ptr @_ZNK6vectorIPN3smt5enodeELb0EjEixEj(ptr noundef nonnull align 8 dereferenceable(8) %0, i32 noundef %1) #4 comdat align 2 {
  %3 = alloca ptr, align 8
  %4 = alloca i32, align 4
  store ptr %0, ptr %3, align 8, !tbaa !773
  store i32 %1, ptr %4, align 4, !tbaa !8
  %5 = load ptr, ptr %3, align 8
  %6 = getelementptr inbounds nuw %class.vector.172, ptr %5, i32 0, i32 0
  %7 = load ptr, ptr %6, align 8, !tbaa !775
  %8 = load i32, ptr %4, align 4, !tbaa !8
  %9 = zext i32 %8 to i64
  %10 = getelementptr inbounds nuw ptr, ptr %7, i64 %9
  ret ptr %10
}

; Function Attrs: mustprogress uwtable
define linkonce_odr hidden noundef ptr @_ZNK3smt6theory9get_enodeEi(ptr noundef nonnull align 8 dereferenceable(53) %0, i32 noundef %1) #6 comdat align 2 {
  %3 = alloca ptr, align 8
  %4 = alloca i32, align 4
  store ptr %0, ptr %3, align 8, !tbaa !119
  store i32 %1, ptr %4, align 4, !tbaa !8
  %5 = load ptr, ptr %3, align 8
  %6 = getelementptr inbounds nuw %"class.smt::theory", ptr %5, i32 0, i32 5
  %7 = load i32, ptr %4, align 4, !tbaa !8
  %8 = call noundef nonnull align 8 dereferenceable(8) ptr @_ZNK6vectorIPN3smt5enodeELb0EjEixEj(ptr noundef nonnull align 8 dereferenceable(8) %6, i32 noundef %7)
  %9 = load ptr, ptr %8, align 8, !tbaa !30
  ret ptr %9
}

; Function Attrs: mustprogress uwtable
define linkonce_odr hidden noundef ptr @_ZNK3smt16arith_eq_adapter9get_enodeEi(ptr noundef nonnull align 8 dereferenceable(64) %0, i32 noundef %1) #6 comdat align 2 {
  %3 = alloca ptr, align 8
  %4 = alloca i32, align 4
  store ptr %0, ptr %3, align 8, !tbaa !28
  store i32 %1, ptr %4, align 4, !tbaa !8
  %5 = load ptr, ptr %3, align 8
  %6 = getelementptr inbounds nuw %"class.smt::arith_eq_adapter", ptr %5, i32 0, i32 1
  %7 = load ptr, ptr %6, align 8, !tbaa !56
  %8 = load i32, ptr %4, align 4, !tbaa !8
  %9 = call noundef ptr @_ZNK3smt6theory9get_enodeEi(ptr noundef nonnull align 8 dereferenceable(53) %7, i32 noundef %8)
  ret ptr %9
}

; Function Attrs: mustprogress uwtable
define hidden void @_ZN3smt16arith_eq_adapter9new_eq_ehEii(ptr noundef nonnull align 8 dereferenceable(64) %0, i32 noundef %1, i32 noundef %2) #6 align 2 {
  %4 = alloca ptr, align 8
  %5 = alloca i32, align 4
  %6 = alloca i32, align 4
  store ptr %0, ptr %4, align 8, !tbaa !28
  store i32 %1, ptr %5, align 4, !tbaa !8
  store i32 %2, ptr %6, align 4, !tbaa !8
  %7 = load ptr, ptr %4, align 8
  %8 = load i32, ptr %5, align 4, !tbaa !8
  %9 = call noundef ptr @_ZNK3smt16arith_eq_adapter9get_enodeEi(ptr noundef nonnull align 8 dereferenceable(64) %7, i32 noundef %8)
  %10 = load i32, ptr %6, align 4, !tbaa !8
  %11 = call noundef ptr @_ZNK3smt16arith_eq_adapter9get_enodeEi(ptr noundef nonnull align 8 dereferenceable(64) %7, i32 noundef %10)
  call void @_ZN3smt16arith_eq_adapter9mk_axiomsEPNS_5enodeES2_(ptr noundef nonnull align 8 dereferenceable(64) %7, ptr noundef %9, ptr noundef %11)
  ret void
}